; Function Attrs: nounwind uwtable
define void @If_LibBoxFree(ptr noundef %0) local_unnamed_addr #5 {
  %2 = icmp eq ptr %0, null
  br i1 %2, label %27, label %.preheader

.preheader:                                       ; preds = %1
  %3 = getelementptr inbounds nuw i8, ptr %0, i64 8
  %4 = load ptr, ptr %3, align 8, !tbaa !22
  %5 = getelementptr i8, ptr %4, i64 4
  %.val14 = load i32, ptr %5, align 4, !tbaa !18
  %6 = icmp sgt i32 %.val14, 0
  br i1 %6, label %.lr.ph, label %.critedge

.lr.ph:                                           ; preds = %.preheader, %19
  %7 = phi ptr [ %20, %19 ], [ %4, %.preheader ]
  %indvars.iv = phi i64 [ %indvars.iv.next, %19 ], [ 0, %.preheader ]
  %8 = getelementptr i8, ptr %7, i64 8
  %.val12 = load ptr, ptr %8, align 8, !tbaa !21
  %9 = getelementptr inbounds nuw ptr, ptr %.val12, i64 %indvars.iv
  %10 = load ptr, ptr %9, align 8, !tbaa !25
  %11 = icmp eq ptr %10, null
  br i1 %11, label %19, label %12

12:                                               ; preds = %.lr.ph
  %13 = getelementptr inbounds nuw i8, ptr %10, i64 24
  %14 = load ptr, ptr %13, align 8, !tbaa !17
  %.not.i = icmp eq ptr %14, null
  br i1 %.not.i, label %16, label %15

15:                                               ; preds = %12
  tail call void @free(ptr noundef nonnull %14) #19
  store ptr null, ptr %13, align 8, !tbaa !17
  br label %16

16:                                               ; preds = %15, %12
  %17 = load ptr, ptr %10, align 8, !tbaa !3
  %.not9.i = icmp eq ptr %17, null
  br i1 %.not9.i, label %If_BoxFree.exit, label %18

18:                                               ; preds = %16
  tail call void @free(ptr noundef nonnull %17) #19
  br label %If_BoxFree.exit

If_BoxFree.exit:                                  ; preds = %16, %18
  tail call void @free(ptr noundef nonnull %10) #19
  %.pre = load ptr, ptr %3, align 8, !tbaa !22
  br label %19

19:                                               ; preds = %If_BoxFree.exit, %.lr.ph
  %20 = phi ptr [ %.pre, %If_BoxFree.exit ], [ %7, %.lr.ph ]
  %indvars.iv.next = add nuw nsw i64 %indvars.iv, 1
  %21 = getelementptr i8, ptr %20, i64 4
  %.val = load i32, ptr %21, align 4, !tbaa !18
  %22 = sext i32 %.val to i64
  %23 = icmp slt i64 %indvars.iv.next, %22
  br i1 %23, label %.lr.ph, label %.critedge, !llvm.loop !26

.critedge:                                        ; preds = %19, %.preheader
  %.lcssa = phi ptr [ %4, %.preheader ], [ %20, %19 ]
  %24 = getelementptr inbounds nuw i8, ptr %.lcssa, i64 8
  %25 = load ptr, ptr %24, align 8, !tbaa !21
  %.not.i13 = icmp eq ptr %25, null
  br i1 %.not.i13, label %Vec_PtrFree.exit, label %26

26:                                               ; preds = %.critedge
  tail call void @free(ptr noundef nonnull %25) #19
  br label %Vec_PtrFree.exit

Vec_PtrFree.exit:                                 ; preds = %.critedge, %26
  tail call void @free(ptr noundef nonnull %.lcssa) #19
  tail call void @free(ptr noundef nonnull %0) #19
  br label %27

27:                                               ; preds = %1, %Vec_PtrFree.exit
  ret void
}